target datalayout = "e-m:e-p270:32:32-p271:32:32-p272:64:64-i64:64-i128:128-f80:128-n8:16:32:64-S128"
target triple = "x86_64-unknown-linux-gnu"

%"class.std::__cxx11::basic_string" = type { %"struct.std::__cxx11::basic_string<char>::_Alloc_hider", i64, %union.anon }
%"struct.std::__cxx11::basic_string<char>::_Alloc_hider" = type { ptr }
%union.anon = type { i64, [8 x i8] }
%"class.facebook::velox::common::Filter" = type { %"class.facebook::velox::ISerializable", i8, i8, i32 }
%"class.facebook::velox::ISerializable" = type { ptr }
%"class.std::optional" = type { %"struct.std::_Optional_base" }
%"struct.std::_Optional_base" = type { %"struct.std::_Optional_payload" }
%"struct.std::_Optional_payload" = type { %"struct.std::_Optional_payload_base.base", [7 x i8] }
%"struct.std::_Optional_payload_base.base" = type <{ %"union.std::_Optional_payload_base<std::basic_string_view<char>>::_Storage", i8 }>
%"union.std::_Optional_payload_base<std::basic_string_view<char>>::_Storage" = type { %"class.std::basic_string_view" }
%"class.std::basic_string_view" = type { i64, ptr }
%"class.facebook::velox::common::AbstractRange.base" = type <{ %"class.facebook::velox::common::Filter", i8, i8, i8, i8 }>
%"class.facebook::velox::common::AbstractRange" = type <{ %"class.facebook::velox::common::Filter", i8, i8, i8, i8, [4 x i8] }>
%"class.facebook::velox::common::BytesRange" = type <{ %"class.facebook::velox::common::AbstractRange.base", [4 x i8], %"class.std::__cxx11::basic_string", %"class.std::__cxx11::basic_string", i8, [7 x i8] }>
%"struct.std::_Optional_payload_base" = type <{ %"union.std::_Optional_payload_base<std::basic_string_view<char>>::_Storage", i8, [7 x i8] }>

; Function Attrs: mustprogress nounwind uwtable
define linkonce_odr noundef nonnull align 8 dereferenceable(16) ptr @_ZNSt22_Optional_payload_baseISt17basic_string_viewIcSt11char_traitsIcEEE6_M_getEv(ptr noundef nonnull align 8 dereferenceable(17) %this) #3 comdat align 2 {
entry:
  %this.addr = alloca ptr, align 8
  store ptr %this, ptr %this.addr, align 8
  %this1 = load ptr, ptr %this.addr, align 8
  %_M_payload = getelementptr inbounds %"struct.std::_Optional_payload_base", ptr %this1, i32 0, i32 0
  ret ptr %_M_payload
}

; Function Attrs: mustprogress nounwind uwtable
define linkonce_odr noundef nonnull align 8 dereferenceable(8) ptr @_ZSt3minImERKT_S2_S2_(ptr noundef nonnull align 8 dereferenceable(8) %__a, ptr noundef nonnull align 8 dereferenceable(8) %__b) #3 comdat {
entry:
  %retval = alloca ptr, align 8
  %__a.addr = alloca ptr, align 8
  %__b.addr = alloca ptr, align 8
  store ptr %__a, ptr %__a.addr, align 8
  store ptr %__b, ptr %__b.addr, align 8
  %0 = load ptr, ptr %__b.addr, align 8
  %1 = load i64, ptr %0, align 8
  %2 = load ptr, ptr %__a.addr, align 8
  %3 = load i64, ptr %2, align 8
  %cmp = icmp ult i64 %1, %3
  br i1 %cmp, label %if.then, label %if.end

if.then:                                          ; preds = %entry
  %4 = load ptr, ptr %__b.addr, align 8
  store ptr %4, ptr %retval, align 8
  br label %return

if.end:                                           ; preds = %entry
  %5 = load ptr, ptr %__a.addr, align 8
  store ptr %5, ptr %retval, align 8
  br label %return

return:                                           ; preds = %if.end, %if.then
  %6 = load ptr, ptr %retval, align 8
  ret ptr %6
}

; Function Attrs: mustprogress nounwind uwtable
define linkonce_odr noundef nonnull align 8 dereferenceable(16) ptr @_ZNSt19_Optional_base_implISt17basic_string_viewIcSt11char_traitsIcEESt14_Optional_baseIS3_Lb1ELb1EEE6_M_getEv(ptr noundef nonnull align 1 dereferenceable(1) %this) #3 comdat align 2 {
entry:
  %this.addr = alloca ptr, align 8
  store ptr %this, ptr %this.addr, align 8
  %this1 = load ptr, ptr %this.addr, align 8
  br label %do.body

do.body:                                          ; preds = %entry
  br label %do.cond

do.cond:                                          ; preds = %do.body
  br label %do.end

do.end:                                           ; preds = %do.cond
  %_M_payload = getelementptr inbounds %"struct.std::_Optional_base", ptr %this1, i32 0, i32 0
  %call = call noundef nonnull align 8 dereferenceable(16) ptr @_ZNSt22_Optional_payload_baseISt17basic_string_viewIcSt11char_traitsIcEEE6_M_getEv(ptr noundef nonnull align 8 dereferenceable(17) %_M_payload) #13
  ret ptr %call
}

; Function Attrs: mustprogress nounwind uwtable
define linkonce_odr noundef zeroext i1 @_ZNKSt19_Optional_base_implISt17basic_string_viewIcSt11char_traitsIcEESt14_Optional_baseIS3_Lb1ELb1EEE13_M_is_engagedEv(ptr noundef nonnull align 1 dereferenceable(1) %this) #3 comdat align 2 {
entry:
  %this.addr = alloca ptr, align 8
  store ptr %this, ptr %this.addr, align 8
  %this1 = load ptr, ptr %this.addr, align 8
  %_M_payload = getelementptr inbounds %"struct.std::_Optional_base", ptr %this1, i32 0, i32 0
  %_M_engaged = getelementptr inbounds %"struct.std::_Optional_payload_base", ptr %_M_payload, i32 0, i32 1
  %0 = load i8, ptr %_M_engaged, align 8
  %tobool = trunc i8 %0 to i1
  ret i1 %tobool
}

; Function Attrs: mustprogress nounwind uwtable
define internal noundef i32 @_ZN8facebook5velox6common12_GLOBAL__N_113compareRangesEPKcmRKNSt7__cxx1112basic_stringIcSt11char_traitsIcESaIcEEE(ptr noundef %lhs, i64 noundef %length, ptr noundef nonnull align 8 dereferenceable(32) %rhs) #3 {
entry:
  %retval = alloca i32, align 4
  %lhs.addr = alloca ptr, align 8
  %length.addr = alloca i64, align 8
  %rhs.addr = alloca ptr, align 8
  %size = alloca i32, align 4
  %ref.tmp = alloca i64, align 8
  %compare = alloca i32, align 4
  store ptr %lhs, ptr %lhs.addr, align 8
  store i64 %length, ptr %length.addr, align 8
  store ptr %rhs, ptr %rhs.addr, align 8
  %0 = load ptr, ptr %rhs.addr, align 8
  %call = call noundef i64 @_ZNKSt7__cxx1112basic_stringIcSt11char_traitsIcESaIcEE6lengthEv(ptr noundef nonnull align 8 dereferenceable(32) %0) #13
  store i64 %call, ptr %ref.tmp, align 8
  %call1 = call noundef nonnull align 8 dereferenceable(8) ptr @_ZSt3minImERKT_S2_S2_(ptr noundef nonnull align 8 dereferenceable(8) %length.addr, ptr noundef nonnull align 8 dereferenceable(8) %ref.tmp)
  %1 = load i64, ptr %call1, align 8
  %conv = trunc i64 %1 to i32
  store i32 %conv, ptr %size, align 4
  %2 = load ptr, ptr %lhs.addr, align 8
  %3 = load ptr, ptr %rhs.addr, align 8
  %call2 = call noundef ptr @_ZNKSt7__cxx1112basic_stringIcSt11char_traitsIcESaIcEE4dataEv(ptr noundef nonnull align 8 dereferenceable(32) %3) #13
  %4 = load i32, ptr %size, align 4
  %conv3 = sext i32 %4 to i64
  %call4 = call i32 @memcmp(ptr noundef %2, ptr noundef %call2, i64 noundef %conv3) #4
  store i32 %call4, ptr %compare, align 4
  %5 = load i32, ptr %compare, align 4
  %tobool = icmp ne i32 %5, 0
  br i1 %tobool, label %if.then, label %if.end

if.then:                                          ; preds = %entry
  %6 = load i32, ptr %compare, align 4
  store i32 %6, ptr %retval, align 4
  br label %return

if.end:                                           ; preds = %entry
  %7 = load i64, ptr %length.addr, align 8
  %8 = load ptr, ptr %rhs.addr, align 8
  %call5 = call noundef i64 @_ZNKSt7__cxx1112basic_stringIcSt11char_traitsIcESaIcEE4sizeEv(ptr noundef nonnull align 8 dereferenceable(32) %8) #13
  %sub = sub i64 %7, %call5
  %conv6 = trunc i64 %sub to i32
  store i32 %conv6, ptr %retval, align 4
  br label %return

return:                                           ; preds = %if.end, %if.then
  %9 = load i32, ptr %retval, align 4
  ret i32 %9
}

; Function Attrs: mustprogress nounwind uwtable
define linkonce_odr noundef i64 @_ZNKSt17basic_string_viewIcSt11char_traitsIcEE6lengthEv(ptr noundef nonnull align 8 dereferenceable(16) %this) #3 comdat align 2 {
entry:
  %this.addr = alloca ptr, align 8
  store ptr %this, ptr %this.addr, align 8
  %this1 = load ptr, ptr %this.addr, align 8
  %_M_len = getelementptr inbounds %"class.std::basic_string_view", ptr %this1, i32 0, i32 0
  %0 = load i64, ptr %_M_len, align 8
  ret i64 %0
}

; Function Attrs: mustprogress nounwind uwtable
define linkonce_odr noundef ptr @_ZNKSt17basic_string_viewIcSt11char_traitsIcEE4dataEv(ptr noundef nonnull align 8 dereferenceable(16) %this) #3 comdat align 2 {
entry:
  %this.addr = alloca ptr, align 8
  store ptr %this, ptr %this.addr, align 8
  %this1 = load ptr, ptr %this.addr, align 8
  %_M_str = getelementptr inbounds %"class.std::basic_string_view", ptr %this1, i32 0, i32 1
  %0 = load ptr, ptr %_M_str, align 8
  ret ptr %0
}

; Function Attrs: mustprogress nounwind uwtable
define linkonce_odr noundef ptr @_ZNSt8optionalISt17basic_string_viewIcSt11char_traitsIcEEEptEv(ptr noundef nonnull align 8 dereferenceable(24) %this) #3 comdat align 2 {
entry:
  %this.addr = alloca ptr, align 8
  store ptr %this, ptr %this.addr, align 8
  %this1 = load ptr, ptr %this.addr, align 8
  %call = call noundef nonnull align 8 dereferenceable(16) ptr @_ZNSt19_Optional_base_implISt17basic_string_viewIcSt11char_traitsIcEESt14_Optional_baseIS3_Lb1ELb1EEE6_M_getEv(ptr noundef nonnull align 1 dereferenceable(1) %this1) #13
  ret ptr %call
}

; Function Attrs: mustprogress nounwind uwtable
define linkonce_odr noundef zeroext i1 @_ZNKSt8optionalISt17basic_string_viewIcSt11char_traitsIcEEE9has_valueEv(ptr noundef nonnull align 8 dereferenceable(24) %this) #3 comdat align 2 {
entry:
  %this.addr = alloca ptr, align 8
  store ptr %this, ptr %this.addr, align 8
  %this1 = load ptr, ptr %this.addr, align 8
  %call = call noundef zeroext i1 @_ZNKSt19_Optional_base_implISt17basic_string_viewIcSt11char_traitsIcEESt14_Optional_baseIS3_Lb1ELb1EEE13_M_is_engagedEv(ptr noundef nonnull align 1 dereferenceable(1) %this1) #13
  ret i1 %call
}

; Function Attrs: mustprogress uwtable
define noundef zeroext i1 @_ZNK8facebook5velox6common10BytesRange14testBytesRangeESt8optionalISt17basic_string_viewIcSt11char_traitsIcEEES8_b(ptr noundef nonnull align 8 dereferenceable(96) %this, ptr noundef byval(%"class.std::optional") align 8 %min, ptr noundef byval(%"class.std::optional") align 8 %max, i1 noundef zeroext %hasNull) unnamed_addr #0 align 2 {
entry:
  %retval = alloca i1, align 1
  %this.addr = alloca ptr, align 8
  %hasNull.addr = alloca i8, align 1
  store ptr %this, ptr %this.addr, align 8
  %frombool = zext i1 %hasNull to i8
  store i8 %frombool, ptr %hasNull.addr, align 1
  %this1 = load ptr, ptr %this.addr, align 8
  %0 = load i8, ptr %hasNull.addr, align 1
  %tobool = trunc i8 %0 to i1
  br i1 %tobool, label %land.lhs.true, label %if.end

land.lhs.true:                                    ; preds = %entry
  %nullAllowed_ = getelementptr inbounds %"class.facebook::velox::common::Filter", ptr %this1, i32 0, i32 1
  %1 = load i8, ptr %nullAllowed_, align 8
  %tobool2 = trunc i8 %1 to i1
  br i1 %tobool2, label %if.then, label %if.end

if.then:                                          ; preds = %land.lhs.true
  store i1 true, ptr %retval, align 1
  br label %return

if.end:                                           ; preds = %land.lhs.true, %entry
  %lowerUnbounded_ = getelementptr inbounds %"class.facebook::velox::common::AbstractRange", ptr %this1, i32 0, i32 1
  %2 = load i8, ptr %lowerUnbounded_, align 8
  %tobool3 = trunc i8 %2 to i1
  br i1 %tobool3, label %land.rhs, label %lor.lhs.false

lor.lhs.false:                                    ; preds = %if.end
  %call = call noundef zeroext i1 @_ZNKSt8optionalISt17basic_string_viewIcSt11char_traitsIcEEE9has_valueEv(ptr noundef nonnull align 8 dereferenceable(24) %max) #13
  br i1 %call, label %lor.lhs.false4, label %land.rhs

lor.lhs.false4:                                   ; preds = %lor.lhs.false
  %call5 = call noundef ptr @_ZNSt8optionalISt17basic_string_viewIcSt11char_traitsIcEEEptEv(ptr noundef nonnull align 8 dereferenceable(24) %max) #13
  %call6 = call noundef ptr @_ZNKSt17basic_string_viewIcSt11char_traitsIcEE4dataEv(ptr noundef nonnull align 8 dereferenceable(16) %call5) #13
  %call7 = call noundef ptr @_ZNSt8optionalISt17basic_string_viewIcSt11char_traitsIcEEEptEv(ptr noundef nonnull align 8 dereferenceable(24) %max) #13
  %call8 = call noundef i64 @_ZNKSt17basic_string_viewIcSt11char_traitsIcEE6lengthEv(ptr noundef nonnull align 8 dereferenceable(16) %call7) #13
  %lower_ = getelementptr inbounds %"class.facebook::velox::common::BytesRange", ptr %this1, i32 0, i32 2
  %call9 = call noundef i32 @_ZN8facebook5velox6common12_GLOBAL__N_113compareRangesEPKcmRKNSt7__cxx1112basic_stringIcSt11char_traitsIcESaIcEEE(ptr noundef %call6, i64 noundef %call8, ptr noundef nonnull align 8 dereferenceable(32) %lower_)
  %lowerExclusive_ = getelementptr inbounds %"class.facebook::velox::common::AbstractRange", ptr %this1, i32 0, i32 2
  %3 = load i8, ptr %lowerExclusive_, align 1
  %tobool10 = trunc i8 %3 to i1
  %lnot = xor i1 %tobool10, true
  %lnot11 = xor i1 %lnot, true
  %conv = zext i1 %lnot11 to i32
  %cmp = icmp sge i32 %call9, %conv
  br i1 %cmp, label %land.rhs, label %land.end

land.rhs:                                         ; preds = %lor.lhs.false4, %lor.lhs.false, %if.end
  %upperUnbounded_ = getelementptr inbounds %"class.facebook::velox::common::AbstractRange", ptr %this1, i32 0, i32 3
  %4 = load i8, ptr %upperUnbounded_, align 2
  %tobool12 = trunc i8 %4 to i1
  br i1 %tobool12, label %lor.end, label %lor.lhs.false13

lor.lhs.false13:                                  ; preds = %land.rhs
  %call14 = call noundef zeroext i1 @_ZNKSt8optionalISt17basic_string_viewIcSt11char_traitsIcEEE9has_valueEv(ptr noundef nonnull align 8 dereferenceable(24) %min) #13
  br i1 %call14, label %lor.rhs, label %lor.end

lor.rhs:                                          ; preds = %lor.lhs.false13
  %call15 = call noundef ptr @_ZNSt8optionalISt17basic_string_viewIcSt11char_traitsIcEEEptEv(ptr noundef nonnull align 8 dereferenceable(24) %min) #13
  %call16 = call noundef ptr @_ZNKSt17basic_string_viewIcSt11char_traitsIcEE4dataEv(ptr noundef nonnull align 8 dereferenceable(16) %call15) #13
  %call17 = call noundef ptr @_ZNSt8optionalISt17basic_string_viewIcSt11char_traitsIcEEEptEv(ptr noundef nonnull align 8 dereferenceable(24) %min) #13
  %call18 = call noundef i64 @_ZNKSt17basic_string_viewIcSt11char_traitsIcEE6lengthEv(ptr noundef nonnull align 8 dereferenceable(16) %call17) #13
  %upper_ = getelementptr inbounds %"class.facebook::velox::common::BytesRange", ptr %this1, i32 0, i32 3
  %call19 = call noundef i32 @_ZN8facebook5velox6common12_GLOBAL__N_113compareRangesEPKcmRKNSt7__cxx1112basic_stringIcSt11char_traitsIcESaIcEEE(ptr noundef %call16, i64 noundef %call18, ptr noundef nonnull align 8 dereferenceable(32) %upper_)
  %upperExclusive_ = getelementptr inbounds %"class.facebook::velox::common::AbstractRange", ptr %this1, i32 0, i32 4
  %5 = load i8, ptr %upperExclusive_, align 1
  %tobool20 = trunc i8 %5 to i1
  %lnot21 = xor i1 %tobool20, true
  %lnot22 = xor i1 %lnot21, true
  %conv23 = zext i1 %lnot22 to i32
  %sub = sub nsw i32 0, %conv23
  %cmp24 = icmp sle i32 %call19, %sub
  br label %lor.end

lor.end:                                          ; preds = %lor.rhs, %lor.lhs.false13, %land.rhs
  %6 = phi i1 [ true, %lor.lhs.false13 ], [ true, %land.rhs ], [ %cmp24, %lor.rhs ]
  br label %land.end

land.end:                                         ; preds = %lor.end, %lor.lhs.false4
  %7 = phi i1 [ false, %lor.lhs.false4 ], [ %6, %lor.end ]
  store i1 %7, ptr %retval, align 1
  br label %return

return:                                           ; preds = %land.end, %if.then
  %8 = load i1, ptr %retval, align 1
  ret i1 %8
}