; Function Attrs: mustprogress nounwind uwtable
define noundef zeroext i1 @_ZNK8facebook5velox6common10BytesRange14testBytesRangeESt8optionalISt17basic_string_viewIcSt11char_traitsIcEEES8_b(ptr noundef nonnull align 8 dereferenceable(96) %this, ptr nocapture noundef readonly byval(%"class.std::optional") align 8 %min, ptr nocapture noundef readonly byval(%"class.std::optional") align 8 %max, i1 noundef zeroext %hasNull) unnamed_addr #4 align 2 {
entry:
  br i1 %hasNull, label %land.lhs.true, label %if.end

land.lhs.true:                                    ; preds = %entry
  %nullAllowed_ = getelementptr inbounds i8, ptr %this, i64 8
  %0 = load i8, ptr %nullAllowed_, align 8
  %1 = and i8 %0, 1
  %tobool2.not = icmp eq i8 %1, 0
  br i1 %tobool2.not, label %if.end, label %return

if.end:                                           ; preds = %land.lhs.true, %entry
  %lowerUnbounded_ = getelementptr inbounds i8, ptr %this, i64 16
  %2 = load i8, ptr %lowerUnbounded_, align 8
  %3 = and i8 %2, 1
  %tobool3.not = icmp eq i8 %3, 0
  br i1 %tobool3.not, label %lor.lhs.false, label %land.rhs

lor.lhs.false:                                    ; preds = %if.end
  %_M_engaged.i.i = getelementptr inbounds i8, ptr %max, i64 16
  %4 = load i8, ptr %_M_engaged.i.i, align 8
  %5 = and i8 %4, 1
  %tobool.i.i.not = icmp eq i8 %5, 0
  br i1 %tobool.i.i.not, label %land.rhs, label %lor.lhs.false4

lor.lhs.false4:                                   ; preds = %lor.lhs.false
  %_M_str.i = getelementptr inbounds i8, ptr %max, i64 8
  %6 = load ptr, ptr %_M_str.i, align 8
  %7 = load i64, ptr %max, align 8
  %lower_ = getelementptr inbounds i8, ptr %this, i64 24
  %call.i = tail call noundef i64 @_ZNKSt7__cxx1112basic_stringIcSt11char_traitsIcESaIcEE6lengthEv(ptr noundef nonnull align 8 dereferenceable(32) %lower_) #34
  %.sroa.speculated.i = tail call i64 @llvm.umin.i64(i64 %call.i, i64 %7)
  %call2.i = tail call noundef ptr @_ZNKSt7__cxx1112basic_stringIcSt11char_traitsIcESaIcEE4dataEv(ptr noundef nonnull align 8 dereferenceable(32) %lower_) #34
  %sext.i = shl i64 %.sroa.speculated.i, 32
  %conv3.i = ashr exact i64 %sext.i, 32
  %call4.i = tail call i32 @memcmp(ptr noundef %6, ptr noundef %call2.i, i64 noundef %conv3.i) #40
  %tobool.not.i = icmp eq i32 %call4.i, 0
  br i1 %tobool.not.i, label %if.end.i, label %_ZN8facebook5velox6common12_GLOBAL__N_113compareRangesEPKcmRKNSt7__cxx1112basic_stringIcSt11char_traitsIcESaIcEEE.exit

if.end.i:                                         ; preds = %lor.lhs.false4
  %call5.i = tail call noundef i64 @_ZNKSt7__cxx1112basic_stringIcSt11char_traitsIcESaIcEE4sizeEv(ptr noundef nonnull align 8 dereferenceable(32) %lower_) #34
  %sub.i = sub i64 %7, %call5.i
  %conv6.i = trunc i64 %sub.i to i32
  br label %_ZN8facebook5velox6common12_GLOBAL__N_113compareRangesEPKcmRKNSt7__cxx1112basic_stringIcSt11char_traitsIcESaIcEEE.exit

_ZN8facebook5velox6common12_GLOBAL__N_113compareRangesEPKcmRKNSt7__cxx1112basic_stringIcSt11char_traitsIcESaIcEEE.exit: ; preds = %lor.lhs.false4, %if.end.i
  %retval.0.i = phi i32 [ %conv6.i, %if.end.i ], [ %call4.i, %lor.lhs.false4 ]
  %lowerExclusive_ = getelementptr inbounds i8, ptr %this, i64 17
  %8 = load i8, ptr %lowerExclusive_, align 1
  %9 = and i8 %8, 1
  %conv = zext nneg i8 %9 to i32
  %cmp.not = icmp slt i32 %retval.0.i, %conv
  br i1 %cmp.not, label %return, label %land.rhs

land.rhs:                                         ; preds = %_ZN8facebook5velox6common12_GLOBAL__N_113compareRangesEPKcmRKNSt7__cxx1112basic_stringIcSt11char_traitsIcESaIcEEE.exit, %lor.lhs.false, %if.end
  %upperUnbounded_ = getelementptr inbounds i8, ptr %this, i64 18
  %10 = load i8, ptr %upperUnbounded_, align 2
  %11 = and i8 %10, 1
  %tobool12.not = icmp eq i8 %11, 0
  br i1 %tobool12.not, label %lor.lhs.false13, label %return

lor.lhs.false13:                                  ; preds = %land.rhs
  %_M_engaged.i.i1 = getelementptr inbounds i8, ptr %min, i64 16
  %12 = load i8, ptr %_M_engaged.i.i1, align 8
  %13 = and i8 %12, 1
  %tobool.i.i2.not = icmp eq i8 %13, 0
  br i1 %tobool.i.i2.not, label %return, label %lor.rhs

lor.rhs:                                          ; preds = %lor.lhs.false13
  %_M_str.i3 = getelementptr inbounds i8, ptr %min, i64 8
  %14 = load ptr, ptr %_M_str.i3, align 8
  %15 = load i64, ptr %min, align 8
  %upper_ = getelementptr inbounds i8, ptr %this, i64 56
  %call.i4 = tail call noundef i64 @_ZNKSt7__cxx1112basic_stringIcSt11char_traitsIcESaIcEE6lengthEv(ptr noundef nonnull align 8 dereferenceable(32) %upper_) #34
  %.sroa.speculated.i5 = tail call i64 @llvm.umin.i64(i64 %call.i4, i64 %15)
  %call2.i6 = tail call noundef ptr @_ZNKSt7__cxx1112basic_stringIcSt11char_traitsIcESaIcEE4dataEv(ptr noundef nonnull align 8 dereferenceable(32) %upper_) #34
  %sext.i7 = shl i64 %.sroa.speculated.i5, 32
  %conv3.i8 = ashr exact i64 %sext.i7, 32
  %call4.i9 = tail call i32 @memcmp(ptr noundef %14, ptr noundef %call2.i6, i64 noundef %conv3.i8) #40
  %tobool.not.i10 = icmp eq i32 %call4.i9, 0
  br i1 %tobool.not.i10, label %if.end.i12, label %_ZN8facebook5velox6common12_GLOBAL__N_113compareRangesEPKcmRKNSt7__cxx1112basic_stringIcSt11char_traitsIcESaIcEEE.exit16

if.end.i12:                                       ; preds = %lor.rhs
  %call5.i13 = tail call noundef i64 @_ZNKSt7__cxx1112basic_stringIcSt11char_traitsIcESaIcEE4sizeEv(ptr noundef nonnull align 8 dereferenceable(32) %upper_) #34
  %sub.i14 = sub i64 %15, %call5.i13
  %conv6.i15 = trunc i64 %sub.i14 to i32
  br label %_ZN8facebook5velox6common12_GLOBAL__N_113compareRangesEPKcmRKNSt7__cxx1112basic_stringIcSt11char_traitsIcESaIcEEE.exit16

_ZN8facebook5velox6common12_GLOBAL__N_113compareRangesEPKcmRKNSt7__cxx1112basic_stringIcSt11char_traitsIcESaIcEEE.exit16: ; preds = %lor.rhs, %if.end.i12
  %retval.0.i11 = phi i32 [ %conv6.i15, %if.end.i12 ], [ %call4.i9, %lor.rhs ]
  %upperExclusive_ = getelementptr inbounds i8, ptr %this, i64 19
  %16 = load i8, ptr %upperExclusive_, align 1
  %17 = and i8 %16, 1
  %conv23 = zext nneg i8 %17 to i32
  %sub = sub nsw i32 0, %conv23
  %cmp24 = icmp sle i32 %retval.0.i11, %sub
  br label %return

return:                                           ; preds = %_ZN8facebook5velox6common12_GLOBAL__N_113compareRangesEPKcmRKNSt7__cxx1112basic_stringIcSt11char_traitsIcESaIcEEE.exit, %_ZN8facebook5velox6common12_GLOBAL__N_113compareRangesEPKcmRKNSt7__cxx1112basic_stringIcSt11char_traitsIcESaIcEEE.exit16, %lor.lhs.false13, %land.rhs, %land.lhs.true
  %retval.0 = phi i1 [ true, %land.lhs.true ], [ false, %_ZN8facebook5velox6common12_GLOBAL__N_113compareRangesEPKcmRKNSt7__cxx1112basic_stringIcSt11char_traitsIcESaIcEEE.exit ], [ true, %lor.lhs.false13 ], [ true, %land.rhs ], [ %cmp24, %_ZN8facebook5velox6common12_GLOBAL__N_113compareRangesEPKcmRKNSt7__cxx1112basic_stringIcSt11char_traitsIcESaIcEEE.exit16 ]
  ret i1 %retval.0
}